(dp0
S'https://remote.lifespan.org'
p1
ccopy_reg
_reconstructor
p2
(crequests.cookies
RequestsCookieJar
p3
c__builtin__
object
p4
Ntp5
Rp6
(dp7
S'_now'
p8
I1439406330
sS'_policy'
p9
(icookielib
DefaultCookiePolicy
p10
(dp11
S'strict_rfc2965_unverifiable'
p12
I01
sS'strict_ns_domain'
p13
I0
sS'_allowed_domains'
p14
NsS'rfc2109_as_netscape'
p15
NsS'rfc2965'
p16
I00
sS'strict_domain'
p17
I00
sg8
I1439406330
sS'strict_ns_set_path'
p18
I00
sS'strict_ns_unverifiable'
p19
I00
sS'strict_ns_set_initial_dollar'
p20
I00
sS'hide_cookie2'
p21
I00
sS'_blocked_domains'
p22
(tsS'netscape'
p23
I01
sbsS'_cookies'
p24
(dp25
S'remote.lifespan.org'
p26
(dp27
S'/dana-na/'
p28
(dp29
S'DSSIGNIN'
p30
(icookielib
Cookie
p31
(dp32
S'comment'
p33
NsS'domain'
p34
S'remote.lifespan.org'
p35
sS'name'
p36
S'DSSIGNIN'
p37
sS'domain_initial_dot'
p38
I00
sS'expires'
p39
I2145830400
sS'value'
p40
S'url_default'
p41
sS'domain_specified'
p42
I00
sS'_rest'
p43
(dp44
sS'version'
p45
I0
sS'port_specified'
p46
I00
sS'rfc2109'
p47
I00
sS'discard'
p48
I00
sS'path_specified'
p49
I01
sS'path'
p50
S'/dana-na/'
p51
sS'port'
p52
NsS'comment_url'
p53
NsS'secure'
p54
I01
sbssS'/'
p55
(dp56
S'DSFirstAccess'
p57
(icookielib
Cookie
p58
(dp59
g33
Nsg34
S'remote.lifespan.org'
p60
sg36
S'DSFirstAccess'
p61
sg38
I00
sg39
Nsg40
S'1439406330'
p62
sg42
I00
sg43
(dp63
sg45
I0
sg46
I00
sg47
I00
sg48
I01
sg49
I01
sg50
S'/'
p64
sg52
Nsg53
Nsg54
I01
sbsS'DSLastAccess'
p65
(icookielib
Cookie
p66
(dp67
g33
Nsg34
S'remote.lifespan.org'
p68
sg36
S'DSLastAccess'
p69
sg38
I00
sg39
Nsg40
S'1439406329'
p70
sg42
I00
sg43
(dp71
sg45
I0
sg46
I00
sg47
I00
sg48
I01
sg49
I01
sg50
g64
sg52
Nsg53
Nsg54
I01
sbsS'DSID'
p72
(icookielib
Cookie
p73
(dp74
g33
Nsg34
S'remote.lifespan.org'
p75
sg36
S'DSID'
p76
sg38
I00
sg39
Nsg40
S'89f9b204bd29beb25678212210c4c8f3'
p77
sg42
I00
sg43
(dp78
sg45
I0
sg46
I00
sg47
I00
sg48
I01
sg49
I01
sg50
g64
sg52
Nsg53
Nsg54
I01
sbsS'DSLaunchURL'
p79
(icookielib
Cookie
p80
(dp81
g33
Nsg34
S'remote.lifespan.org'
p82
sg36
g79
sg38
I00
sg39
Nsg40
S'2F64616E612F686F6D652F696E6465782E636769'
p83
sg42
I00
sg43
(dp84
sg45
I0
sg46
I00
sg47
I00
sg48
I01
sg49
I01
sg50
g64
sg52
Nsg53
Nsg54
I01
sbsS'DSSignInURL'
p85
(icookielib
Cookie
p86
(dp87
g33
Nsg34
S'remote.lifespan.org'
p88
sg36
S'DSSignInURL'
p89
sg38
I00
sg39
Nsg40
g64
sg42
I00
sg43
(dp90
sg45
I0
sg46
I00
sg47
I00
sg48
I01
sg49
I01
sg50
g64
sg52
Nsg53
Nsg54
I01
sbssssbs.